target datalayout = "e-m:e-p270:32:32-p271:32:32-p272:64:64-i64:64-i128:128-f80:128-n8:16:32:64-S128"
target triple = "x86_64-pc-linux-gnu"

%struct.llama_sampler = type { ptr, ptr }

; Function Attrs: mustprogress nounwind uwtable
define internal void @_ZL24llama_sampler_top_p_freeP13llama_sampler(ptr noundef %0) #6 {
  %2 = alloca ptr, align 8
  store ptr %0, ptr %2, align 8, !tbaa !12
  %3 = load ptr, ptr %2, align 8, !tbaa !12
  %4 = getelementptr inbounds nuw %struct.llama_sampler, ptr %3, i32 0, i32 1
  %5 = load ptr, ptr %4, align 8, !tbaa !11
  %6 = icmp eq ptr %5, null
  br i1 %6, label %8, label %7

7:                                                ; preds = %1
  call void @_ZdlPvm(ptr noundef %5, i64 noundef 16) #21
  br label %8

8:                                                ; preds = %7, %1
  ret void
}